; Function Attrs: nounwind uwtable
define hidden zeroext i1 @SDL_EGL_SetErrorEx(ptr noundef %0, ptr noundef %1, i32 noundef %2) local_unnamed_addr #0 {
  %4 = alloca [32 x i8], align 16
  %switch.tableidx = add i32 %2, -12288
  %5 = icmp ult i32 %switch.tableidx, 15
  br i1 %5, label %switch.lookup, label %SDL_EGL_GetErrorName.exit

switch.lookup:                                    ; preds = %3
  %6 = zext nneg i32 %switch.tableidx to i64
  %switch.gep = getelementptr inbounds nuw [15 x ptr], ptr @switch.table.SDL_EGL_CreateSurface, i64 0, i64 %6
  %switch.load = load ptr, ptr %switch.gep, align 8
  br label %SDL_EGL_GetErrorName.exit

SDL_EGL_GetErrorName.exit:                        ; preds = %3, %switch.lookup
  %.0.i = phi ptr [ %switch.load, %switch.lookup ], [ @.str.62, %3 ]
  call void @llvm.lifetime.start.p0(i64 32, ptr nonnull %4) #7
  %7 = load i8, ptr %.0.i, align 1
  %8 = icmp eq i8 %7, 0
  br i1 %8, label %9, label %11

9:                                                ; preds = %SDL_EGL_GetErrorName.exit
  %10 = call i32 (ptr, i64, ptr, ...) @SDL_snprintf_REAL(ptr noundef nonnull %4, i64 noundef 32, ptr noundef nonnull @.str, i32 noundef %2) #7
  br label %11

11:                                               ; preds = %9, %SDL_EGL_GetErrorName.exit
  %.0 = phi ptr [ %4, %9 ], [ %.0.i, %SDL_EGL_GetErrorName.exit ]
  %12 = call zeroext i1 (ptr, ...) @SDL_SetError_REAL(ptr noundef nonnull @.str.1, ptr noundef %0, ptr noundef %1, ptr noundef nonnull %.0) #7
  call void @llvm.lifetime.end.p0(i64 32, ptr nonnull %4) #7
  ret i1 %12
}